; Function Attrs: nounwind uwtable
define hidden void @_PyStack_UnpackDict_Free(ptr noundef %0, i64 noundef %1, ptr noundef %2) local_unnamed_addr #0 {
  %4 = getelementptr i8, ptr %2, i64 16
  %.val = load i64, ptr %4, align 8, !tbaa !40
  %5 = add i64 %.val, %1
  %6 = icmp sgt i64 %5, 0
  br i1 %6, label %.lr.ph, label %._crit_edge

._crit_edge:                                      ; preds = %Py_DECREF.exit, %3
  %7 = getelementptr i8, ptr %0, i64 -8
  tail call void @PyMem_Free(ptr noundef %7) #10
  %8 = load i32, ptr %2, align 8, !tbaa !24
  %.not.i.i = icmp sgt i32 %8, -1
  br i1 %.not.i.i, label %9, label %_PyStack_UnpackDict_FreeNoDecRef.exit

9:                                                ; preds = %._crit_edge
  %10 = add nsw i32 %8, -1
  store i32 %10, ptr %2, align 8, !tbaa !24
  %11 = icmp eq i32 %10, 0
  br i1 %11, label %12, label %_PyStack_UnpackDict_FreeNoDecRef.exit

12:                                               ; preds = %9
  tail call void @_Py_Dealloc(ptr noundef nonnull %2) #10
  br label %_PyStack_UnpackDict_FreeNoDecRef.exit

_PyStack_UnpackDict_FreeNoDecRef.exit:            ; preds = %._crit_edge, %9, %12
  ret void

.lr.ph:                                           ; preds = %3, %Py_DECREF.exit
  %.08 = phi i64 [ %20, %Py_DECREF.exit ], [ 0, %3 ]
  %13 = getelementptr ptr, ptr %0, i64 %.08
  %14 = load ptr, ptr %13, align 8, !tbaa !23
  %15 = load i32, ptr %14, align 8, !tbaa !24
  %.not.i = icmp sgt i32 %15, -1
  br i1 %.not.i, label %16, label %Py_DECREF.exit

16:                                               ; preds = %.lr.ph
  %17 = add nsw i32 %15, -1
  store i32 %17, ptr %14, align 8, !tbaa !24
  %18 = icmp eq i32 %17, 0
  br i1 %18, label %19, label %Py_DECREF.exit

19:                                               ; preds = %16
  tail call void @_Py_Dealloc(ptr noundef nonnull %14) #10
  br label %Py_DECREF.exit

Py_DECREF.exit:                                   ; preds = %.lr.ph, %16, %19
  %20 = add nuw nsw i64 %.08, 1
  %exitcond.not = icmp eq i64 %20, %5
  br i1 %exitcond.not, label %._crit_edge, label %.lr.ph, !llvm.loop !41
}